target datalayout = "e-m:e-p270:32:32-p271:32:32-p272:64:64-i64:64-i128:128-f80:128-n8:16:32:64-S128"
target triple = "x86_64-pc-linux-gnu"

; Function Attrs: nounwind uwtable
define hidden ptr @X509_chain_up_ref(ptr noundef %0) #0 {
  %2 = alloca ptr, align 8
  %3 = alloca ptr, align 8
  %4 = alloca i64, align 8
  store ptr %0, ptr %2, align 8, !tbaa !69
  call void @llvm.lifetime.start.p0(i64 8, ptr %3) #5
  call void @llvm.lifetime.start.p0(i64 8, ptr %4) #5
  %5 = load ptr, ptr %2, align 8, !tbaa !69
  %6 = call ptr @sk_dup(ptr noundef %5)
  store ptr %6, ptr %3, align 8, !tbaa !69
  store i64 0, ptr %4, align 8, !tbaa !44
  br label %7

7:                                                ; preds = %17, %1
  %8 = load i64, ptr %4, align 8, !tbaa !44
  %9 = load ptr, ptr %3, align 8, !tbaa !69
  %10 = call i64 @sk_num(ptr noundef %9)
  %11 = icmp ult i64 %8, %10
  br i1 %11, label %12, label %20

12:                                               ; preds = %7
  %13 = load ptr, ptr %3, align 8, !tbaa !69
  %14 = load i64, ptr %4, align 8, !tbaa !44
  %15 = call ptr @sk_value(ptr noundef %13, i64 noundef %14)
  %16 = call ptr @X509_up_ref(ptr noundef %15)
  br label %17

17:                                               ; preds = %12
  %18 = load i64, ptr %4, align 8, !tbaa !44
  %19 = add i64 %18, 1
  store i64 %19, ptr %4, align 8, !tbaa !44
  br label %7, !llvm.loop !96

20:                                               ; preds = %7
  %21 = load ptr, ptr %3, align 8, !tbaa !69
  call void @llvm.lifetime.end.p0(i64 8, ptr %4) #5
  call void @llvm.lifetime.end.p0(i64 8, ptr %3) #5
  ret ptr %21
}