; Function Attrs: nounwind uwtable
define hidden noundef ptr @X509_chain_up_ref(ptr noundef %0) local_unnamed_addr #0 {
  %2 = tail call ptr @sk_dup(ptr noundef %0) #8
  %3 = tail call i64 @sk_num(ptr noundef %2) #8
  %.not = icmp eq i64 %3, 0
  br i1 %.not, label %._crit_edge, label %.lr.ph

.lr.ph:                                           ; preds = %1, %.lr.ph
  %.06 = phi i64 [ %6, %.lr.ph ], [ 0, %1 ]
  %4 = tail call ptr @sk_value(ptr noundef %2, i64 noundef %.06) #8
  %5 = tail call ptr @X509_up_ref(ptr noundef %4) #8
  %6 = add nuw i64 %.06, 1
  %7 = tail call i64 @sk_num(ptr noundef %2) #8
  %8 = icmp ult i64 %6, %7
  br i1 %8, label %.lr.ph, label %._crit_edge, !llvm.loop !78

._crit_edge:                                      ; preds = %.lr.ph, %1
  ret ptr %2
}